; Function Attrs: mustprogress nounwind uwtable
define hidden void @_ZN14CallRelocation25fix_relocation_after_moveEPK10CodeBufferPS0_(ptr noundef nonnull align 8 dereferenceable(20) %0, ptr nocapture noundef readonly %1, ptr noundef nonnull %2) unnamed_addr #0 align 2 {
  %4 = getelementptr inbounds i8, ptr %0, i64 8
  %5 = load ptr, ptr %4, align 8
  %6 = getelementptr inbounds i8, ptr %5, i64 32
  %7 = load ptr, ptr %6, align 8
  %8 = tail call noundef i32 @_ZNK10CodeBuffer16section_index_ofEPh(ptr noundef nonnull align 8 dereferenceable(448) %2, ptr noundef %7) #19
  %.not.i = icmp eq i32 %8, -1
  br i1 %.not.i, label %9, label %_ZN10Relocation12old_addr_forEPhPK10CodeBufferPS1_.exit

9:                                                ; preds = %3
  %10 = load ptr, ptr @g_assert_poison, align 8
  store i8 88, ptr %10, align 1
  tail call void (ptr, i32, ptr, ptr, ...) @_Z15report_vm_errorPKciS0_S0_z(ptr noundef nonnull @.str, i32 noundef 329, ptr noundef nonnull @.str.10, ptr noundef nonnull @.str.11) #20
  unreachable

_ZN10Relocation12old_addr_forEPhPK10CodeBufferPS1_.exit: ; preds = %3
  %11 = getelementptr inbounds i8, ptr %1, i64 8
  %12 = sext i32 %8 to i64
  %13 = getelementptr inbounds %class.CodeSection, ptr %11, i64 %12
  %14 = load ptr, ptr %13, align 8
  %15 = getelementptr inbounds i8, ptr %2, i64 8
  %16 = getelementptr inbounds %class.CodeSection, ptr %15, i64 %12
  %17 = load ptr, ptr %16, align 8
  %18 = ptrtoint ptr %7 to i64
  %19 = ptrtoint ptr %17 to i64
  %20 = sub i64 %18, %19
  %21 = getelementptr inbounds i8, ptr %14, i64 %20
  %22 = tail call noundef ptr @_ZN10Relocation19pd_call_destinationEPh(ptr noundef nonnull align 8 dereferenceable(20) %0, ptr noundef %21) #19
  tail call void @_ZN10Relocation23pd_set_call_destinationEPh(ptr noundef nonnull align 8 dereferenceable(20) %0, ptr noundef %22) #19
  ret void
}